target datalayout = "e-m:e-p270:32:32-p271:32:32-p272:64:64-i64:64-i128:128-f80:128-n8:16:32:64-S128"
target triple = "x86_64-pc-linux-gnu"

%"class.std::__1::basic_string" = type { %"class.std::__1::__compressed_pair.25" }
%"class.std::__1::__compressed_pair.25" = type { %"struct.std::__1::__compressed_pair_elem.26" }
%"struct.std::__1::__compressed_pair_elem.26" = type { %"struct.std::__1::basic_string<char>::__rep" }
%"struct.std::__1::basic_string<char>::__rep" = type { %union.anon }
%union.anon = type { %"struct.std::__1::basic_string<char>::__long" }
%"struct.std::__1::basic_string<char>::__long" = type { %struct.anon.27, i64, ptr }
%struct.anon.27 = type { i64 }

@_ZN7mitsuba6Bitmap7m_classE = global ptr null, align 8
@.str.10 = private unnamed_addr constant [115 x i8] c"generated/home/dtcxzyw/WorkSpace/Projects/compilers/llvm-opt-benchmark/bench/mitsuba3/mitsuba3/src/core/bitmap.cpp\00", align 1
@.str.29 = private unnamed_addr constant [29 x i8] c"Bitmap: Unknown file format!\00", align 1

; Function Attrs: mustprogress uwtable
define void @_ZN7mitsuba6Bitmap4readEPNS_6StreamENS0_10FileFormatE(ptr noundef nonnull align 8 dereferenceable(64) %0, ptr noundef %1, i32 noundef %2) #0 align 2 personality ptr @__gxx_personality_v0 {
  %4 = alloca ptr, align 8
  %5 = alloca ptr, align 8
  %6 = alloca i32, align 4
  %7 = alloca %"class.std::__1::basic_string", align 8
  %8 = alloca ptr, align 8
  %9 = alloca i32, align 4
  store ptr %0, ptr %4, align 8
  store ptr %1, ptr %5, align 8
  store i32 %2, ptr %6, align 4
  %10 = load ptr, ptr %4, align 8
  %11 = load i32, ptr %6, align 4
  %12 = icmp eq i32 %11, 9
  br i1 %12, label %13, label %16

13:                                               ; preds = %3
  %14 = load ptr, ptr %5, align 8
  %15 = call noundef i32 @_ZN7mitsuba6Bitmap18detect_file_formatEPNS_6StreamE(ptr noundef %14)
  store i32 %15, ptr %6, align 4
  br label %16

16:                                               ; preds = %13, %3
  %17 = load i32, ptr %6, align 4
  switch i32 %17, label %34 [
    i32 7, label %18
    i32 5, label %20
    i32 1, label %22
    i32 2, label %24
    i32 3, label %26
    i32 4, label %28
    i32 6, label %30
    i32 0, label %32
  ]

18:                                               ; preds = %16
  %19 = load ptr, ptr %5, align 8
  call void @_ZN7mitsuba6Bitmap8read_bmpEPNS_6StreamE(ptr noundef nonnull align 8 dereferenceable(64) %10, ptr noundef %19)
  br label %43

20:                                               ; preds = %16
  %21 = load ptr, ptr %5, align 8
  call void @_ZN7mitsuba6Bitmap9read_jpegEPNS_6StreamE(ptr noundef nonnull align 8 dereferenceable(64) %10, ptr noundef %21)
  br label %43

22:                                               ; preds = %16
  %23 = load ptr, ptr %5, align 8
  call void @_ZN7mitsuba6Bitmap8read_exrEPNS_6StreamE(ptr noundef nonnull align 8 dereferenceable(64) %10, ptr noundef %23)
  br label %43

24:                                               ; preds = %16
  %25 = load ptr, ptr %5, align 8
  call void @_ZN7mitsuba6Bitmap9read_rgbeEPNS_6StreamE(ptr noundef nonnull align 8 dereferenceable(64) %10, ptr noundef %25)
  br label %43

26:                                               ; preds = %16
  %27 = load ptr, ptr %5, align 8
  call void @_ZN7mitsuba6Bitmap8read_pfmEPNS_6StreamE(ptr noundef nonnull align 8 dereferenceable(64) %10, ptr noundef %27)
  br label %43

28:                                               ; preds = %16
  %29 = load ptr, ptr %5, align 8
  call void @_ZN7mitsuba6Bitmap8read_ppmEPNS_6StreamE(ptr noundef nonnull align 8 dereferenceable(64) %10, ptr noundef %29)
  br label %43

30:                                               ; preds = %16
  %31 = load ptr, ptr %5, align 8
  call void @_ZN7mitsuba6Bitmap8read_tgaEPNS_6StreamE(ptr noundef nonnull align 8 dereferenceable(64) %10, ptr noundef %31)
  br label %43

32:                                               ; preds = %16
  %33 = load ptr, ptr %5, align 8
  call void @_ZN7mitsuba6Bitmap8read_pngEPNS_6StreamE(ptr noundef nonnull align 8 dereferenceable(64) %10, ptr noundef %33)
  br label %43

34:                                               ; preds = %16
  br label %35

35:                                               ; preds = %34
  %36 = load ptr, ptr @_ZN7mitsuba6Bitmap7m_classE, align 8
  call void @_ZN10tinyformat6formatIJEEENSt3__112basic_stringIcNS1_11char_traitsIcEENS1_9allocatorIcEEEEPKcDpRKT_(ptr dead_on_unwind writable sret(%"class.std::__1::basic_string") align 8 %7, ptr noundef @.str.29)
  invoke void @_ZN7mitsuba6detail5ThrowENS_8LogLevelEPKNS_5ClassEPKciRKNSt3__112basic_stringIcNS7_11char_traitsIcEENS7_9allocatorIcEEEE(i32 noundef 400, ptr noundef %36, ptr noundef @.str.10, i32 noundef 701, ptr noundef nonnull align 8 dereferenceable(24) %7) #32
          to label %37 unwind label %38

37:                                               ; preds = %35
  unreachable

38:                                               ; preds = %35
  %39 = landingpad { ptr, i32 }
          cleanup
  %40 = extractvalue { ptr, i32 } %39, 0
  store ptr %40, ptr %8, align 8
  %41 = extractvalue { ptr, i32 } %39, 1
  store i32 %41, ptr %9, align 4
  call void @_ZNSt3__112basic_stringIcNS_11char_traitsIcEENS_9allocatorIcEEED1Ev(ptr noundef nonnull align 8 dereferenceable(24) %7) #29
  br label %44

42:                                               ; No predecessors!
  br label %43

43:                                               ; preds = %42, %32, %30, %28, %26, %24, %22, %20, %18
  ret void

44:                                               ; preds = %38
  %45 = load ptr, ptr %8, align 8
  %46 = load i32, ptr %9, align 4
  %47 = insertvalue { ptr, i32 } poison, ptr %45, 0
  %48 = insertvalue { ptr, i32 } %47, i32 %46, 1
  resume { ptr, i32 } %48
}