; Function Attrs: mustprogress uwtable
define void @_ZN7mitsuba6Bitmap4readEPNS_6StreamENS0_10FileFormatE(ptr noundef nonnull align 8 dereferenceable(64) %0, ptr noundef %1, i32 noundef %2) local_unnamed_addr #0 align 2 personality ptr @__gxx_personality_v0 {
  %4 = alloca %"class.std::__1::basic_string", align 8
  %5 = icmp eq i32 %2, 9
  br i1 %5, label %6, label %8

6:                                                ; preds = %3
  %7 = tail call noundef i32 @_ZN7mitsuba6Bitmap18detect_file_formatEPNS_6StreamE(ptr noundef %1), !range !10
  br label %8

8:                                                ; preds = %6, %3
  %.0 = phi i32 [ %7, %6 ], [ %2, %3 ]
  switch i32 %.0, label %17 [
    i32 7, label %9
    i32 5, label %10
    i32 1, label %11
    i32 2, label %12
    i32 3, label %13
    i32 4, label %14
    i32 6, label %15
    i32 0, label %16
  ]

9:                                                ; preds = %8
  tail call void @_ZN7mitsuba6Bitmap8read_bmpEPNS_6StreamE(ptr noundef nonnull align 8 dereferenceable(64) %0, ptr noundef %1)
  br label %22

10:                                               ; preds = %8
  tail call void @_ZN7mitsuba6Bitmap9read_jpegEPNS_6StreamE(ptr noundef nonnull align 8 dereferenceable(64) %0, ptr noundef %1)
  br label %22

11:                                               ; preds = %8
  tail call void @_ZN7mitsuba6Bitmap8read_exrEPNS_6StreamE(ptr noundef nonnull align 8 dereferenceable(64) %0, ptr noundef %1)
  br label %22

12:                                               ; preds = %8
  tail call void @_ZN7mitsuba6Bitmap9read_rgbeEPNS_6StreamE(ptr noundef nonnull align 8 dereferenceable(64) %0, ptr noundef %1)
  br label %22

13:                                               ; preds = %8
  tail call void @_ZN7mitsuba6Bitmap8read_pfmEPNS_6StreamE(ptr noundef nonnull align 8 dereferenceable(64) %0, ptr noundef %1)
  br label %22

14:                                               ; preds = %8
  tail call void @_ZN7mitsuba6Bitmap8read_ppmEPNS_6StreamE(ptr noundef nonnull align 8 dereferenceable(64) %0, ptr noundef %1)
  br label %22

15:                                               ; preds = %8
  tail call void @_ZN7mitsuba6Bitmap8read_tgaEPNS_6StreamE(ptr noundef nonnull align 8 dereferenceable(64) %0, ptr noundef %1)
  br label %22

16:                                               ; preds = %8
  tail call void @_ZN7mitsuba6Bitmap8read_pngEPNS_6StreamE(ptr noundef nonnull align 8 dereferenceable(64) %0, ptr noundef %1)
  br label %22

17:                                               ; preds = %8
  %18 = load ptr, ptr @_ZN7mitsuba6Bitmap7m_classE, align 8
  call void @_ZN10tinyformat6formatIJEEENSt3__112basic_stringIcNS1_11char_traitsIcEENS1_9allocatorIcEEEEPKcDpRKT_(ptr dead_on_unwind nonnull writable sret(%"class.std::__1::basic_string") align 8 %4, ptr noundef nonnull @.str.29)
  invoke void @_ZN7mitsuba6detail5ThrowENS_8LogLevelEPKNS_5ClassEPKciRKNSt3__112basic_stringIcNS7_11char_traitsIcEENS7_9allocatorIcEEEE(i32 noundef 400, ptr noundef %18, ptr noundef nonnull @.str.10, i32 noundef 701, ptr noundef nonnull align 8 dereferenceable(24) %4) #37
          to label %19 unwind label %20

19:                                               ; preds = %17
  unreachable

20:                                               ; preds = %17
  %21 = landingpad { ptr, i32 }
          cleanup
  call void @_ZNSt3__112basic_stringIcNS_11char_traitsIcEENS_9allocatorIcEEED1Ev(ptr noundef nonnull align 8 dereferenceable(24) %4) #36
  resume { ptr, i32 } %21

22:                                               ; preds = %16, %15, %14, %13, %12, %11, %10, %9
  ret void
}